target datalayout = "e-m:e-p270:32:32-p271:32:32-p272:64:64-i64:64-i128:128-f80:128-n8:16:32:64-S128"
target triple = "x86_64-pc-linux-gnu"

%class.QualityMapperPlugin = type <{ %class.QObject, %class.EditTool, ptr, %class.QPoint, i8, [7 x i8] }>
%class.QObject = type { ptr, %class.QScopedPointer }
%class.QScopedPointer = type { ptr }
%class.EditTool = type { %class.MeshLabPluginLogger }
%class.MeshLabPluginLogger = type { ptr, ptr }
%class.QPoint = type { i32, i32 }

; Function Attrs: mustprogress uwtable
define linkonce_odr noundef zeroext i1 @_ZNK7QObject10disconnectEPKcPKS_S1_(ptr noundef nonnull align 8 dereferenceable(16) %0, ptr noundef %1, ptr noundef %2, ptr noundef %3) #5 comdat align 2 {
  %5 = alloca ptr, align 8
  %6 = alloca ptr, align 8
  %7 = alloca ptr, align 8
  %8 = alloca ptr, align 8
  store ptr %0, ptr %5, align 8
  store ptr %1, ptr %6, align 8
  store ptr %2, ptr %7, align 8
  store ptr %3, ptr %8, align 8
  %9 = load ptr, ptr %5, align 8
  %10 = load ptr, ptr %6, align 8
  %11 = load ptr, ptr %7, align 8
  %12 = load ptr, ptr %8, align 8
  %13 = call noundef zeroext i1 @_ZN7QObject10disconnectEPKS_PKcS1_S3_(ptr noundef %9, ptr noundef %10, ptr noundef %11, ptr noundef %12)
  ret i1 %13
}

; Function Attrs: mustprogress uwtable
define void @_ZN19QualityMapperPlugin7endEditER9MeshModelP6GLAreaP26MLSceneGLSharedDataContext(ptr noundef nonnull align 8 dereferenceable(49) %0, ptr noundef nonnull align 8 dereferenceable(1288) %1, ptr noundef %2, ptr noundef %3) unnamed_addr #5 align 2 {
  %5 = alloca ptr, align 8
  %6 = alloca ptr, align 8
  %7 = alloca ptr, align 8
  %8 = alloca ptr, align 8
  store ptr %0, ptr %5, align 8
  store ptr %1, ptr %6, align 8
  store ptr %2, ptr %7, align 8
  store ptr %3, ptr %8, align 8
  %9 = load ptr, ptr %5, align 8
  %10 = getelementptr inbounds %class.QualityMapperPlugin, ptr %9, i32 0, i32 2
  %11 = load ptr, ptr %10, align 8
  %12 = icmp ne ptr %11, null
  br i1 %12, label %13, label %26

13:                                               ; preds = %4
  %14 = getelementptr inbounds %class.QualityMapperPlugin, ptr %9, i32 0, i32 2
  %15 = load ptr, ptr %14, align 8
  %16 = call noundef zeroext i1 @_ZNK7QObject10disconnectEPKcPKS_S1_(ptr noundef nonnull align 8 dereferenceable(16) %15, ptr noundef null, ptr noundef null, ptr noundef null)
  %17 = getelementptr inbounds %class.QualityMapperPlugin, ptr %9, i32 0, i32 2
  %18 = load ptr, ptr %17, align 8
  %19 = icmp eq ptr %18, null
  br i1 %19, label %24, label %20

20:                                               ; preds = %13
  %21 = load ptr, ptr %18, align 8
  %22 = getelementptr inbounds ptr, ptr %21, i64 4
  %23 = load ptr, ptr %22, align 8
  call void %23(ptr noundef nonnull align 8 dereferenceable(824) %18) #3
  br label %24

24:                                               ; preds = %20, %13
  %25 = getelementptr inbounds %class.QualityMapperPlugin, ptr %9, i32 0, i32 2
  store ptr null, ptr %25, align 8
  br label %26

26:                                               ; preds = %24, %4
  ret void
}